target datalayout = "e-m:e-p270:32:32-p271:32:32-p272:64:64-i64:64-i128:128-f80:128-n8:16:32:64-S128"
target triple = "x86_64-pc-linux-gnu"

; Function Attrs: inlinehint nounwind uwtable
define internal i32 @pg_euc_mblen(ptr noundef %0) #0 {
  %2 = alloca ptr, align 8
  %3 = alloca i32, align 4
  store ptr %0, ptr %2, align 8
  call void @llvm.lifetime.start.p0(i64 4, ptr %3) #7
  %4 = load ptr, ptr %2, align 8
  %5 = load i8, ptr %4, align 1
  %6 = zext i8 %5 to i32
  %7 = icmp eq i32 %6, 142
  br i1 %7, label %8, label %9

8:                                                ; preds = %1
  store i32 2, ptr %3, align 4
  br label %25

9:                                                ; preds = %1
  %10 = load ptr, ptr %2, align 8
  %11 = load i8, ptr %10, align 1
  %12 = zext i8 %11 to i32
  %13 = icmp eq i32 %12, 143
  br i1 %13, label %14, label %15

14:                                               ; preds = %9
  store i32 3, ptr %3, align 4
  br label %24

15:                                               ; preds = %9
  %16 = load ptr, ptr %2, align 8
  %17 = load i8, ptr %16, align 1
  %18 = zext i8 %17 to i32
  %19 = and i32 %18, 128
  %20 = icmp ne i32 %19, 0
  br i1 %20, label %21, label %22

21:                                               ; preds = %15
  store i32 2, ptr %3, align 4
  br label %23

22:                                               ; preds = %15
  store i32 1, ptr %3, align 4
  br label %23

23:                                               ; preds = %22, %21
  br label %24

24:                                               ; preds = %23, %14
  br label %25

25:                                               ; preds = %24, %8
  %26 = load i32, ptr %3, align 4
  call void @llvm.lifetime.end.p0(i64 4, ptr %3) #7
  ret i32 %26
}

; Function Attrs: nounwind uwtable
define internal i32 @pg_eucjp_mblen(ptr noundef %0) #1 {
  %2 = alloca ptr, align 8
  store ptr %0, ptr %2, align 8
  %3 = load ptr, ptr %2, align 8
  %4 = call i32 @pg_euc_mblen(ptr noundef %3)
  ret i32 %4
}